; Function Attrs: mustprogress uwtable
define void @_ZNK10open_spiel17morpion_solitaire12MorpionState22InformationStateStringB5cxx11Ei(ptr dead_on_unwind noalias writable sret(%"class.std::__cxx11::basic_string") align 8 %0, ptr noundef nonnull align 8 dereferenceable(880) %1, i32 noundef %2) unnamed_addr #3 align 2 personality ptr @__gxx_personality_v0 {
  %4 = alloca i32, align 4
  %5 = alloca i32, align 4
  %6 = alloca %"class.std::__cxx11::basic_string", align 8
  %7 = alloca i32, align 4
  %8 = alloca i32, align 4
  %9 = alloca i32, align 4
  %10 = alloca %"class.std::__cxx11::basic_string", align 8
  %11 = alloca i32, align 4
  store i32 %2, ptr %4, align 4
  store i32 0, ptr %5, align 4
  %12 = icmp sgt i32 %2, -1
  br i1 %12, label %17, label %13

13:                                               ; preds = %3
  store i32 312, ptr %7, align 4
  call void @_ZN10open_spiel8internal11SpielStrCatIJRA154_KcRA2_S2_iS6_RA12_S2_RA8_S2_RA4_S2_RiRA7_S2_SD_EEENSt7__cxx1112basic_stringIcSt11char_traitsIcESaIcEEEDpOT_(ptr dead_on_unwind nonnull writable sret(%"class.std::__cxx11::basic_string") align 8 %6, ptr noundef nonnull align 1 dereferenceable(154) @.str.11, ptr noundef nonnull align 1 dereferenceable(2) @.str.12, ptr noundef nonnull align 4 dereferenceable(4) %7, ptr noundef nonnull align 1 dereferenceable(2) @.str.9, ptr noundef nonnull align 1 dereferenceable(12) @.str.13, ptr noundef nonnull align 1 dereferenceable(8) @.str.14, ptr noundef nonnull align 1 dereferenceable(4) @.str.15, ptr noundef nonnull align 4 dereferenceable(4) %4, ptr noundef nonnull align 1 dereferenceable(7) @.str.16, ptr noundef nonnull align 4 dereferenceable(4) %5)
  invoke void @_ZN10open_spiel15SpielFatalErrorERKNSt7__cxx1112basic_stringIcSt11char_traitsIcESaIcEEE(ptr noundef nonnull align 8 dereferenceable(32) %6) #23
          to label %14 unwind label %15

14:                                               ; preds = %13
  unreachable

15:                                               ; preds = %13
  %16 = landingpad { ptr, i32 }
          cleanup
  br label %26

17:                                               ; preds = %3
  store i32 %2, ptr %8, align 4
  %18 = getelementptr inbounds nuw i8, ptr %1, i64 28
  %19 = load i32, ptr %18, align 4
  store i32 %19, ptr %9, align 4
  %20 = icmp slt i32 %2, %19
  br i1 %20, label %25, label %21

21:                                               ; preds = %17
  store i32 313, ptr %11, align 4
  call void @_ZN10open_spiel8internal11SpielStrCatIJRA154_KcRA2_S2_iS6_RA22_S2_RA8_S2_RA4_S2_RiRA18_S2_SD_EEENSt7__cxx1112basic_stringIcSt11char_traitsIcESaIcEEEDpOT_(ptr dead_on_unwind nonnull writable sret(%"class.std::__cxx11::basic_string") align 8 %10, ptr noundef nonnull align 1 dereferenceable(154) @.str.11, ptr noundef nonnull align 1 dereferenceable(2) @.str.12, ptr noundef nonnull align 4 dereferenceable(4) %11, ptr noundef nonnull align 1 dereferenceable(2) @.str.9, ptr noundef nonnull align 1 dereferenceable(22) @.str.17, ptr noundef nonnull align 1 dereferenceable(8) @.str.14, ptr noundef nonnull align 1 dereferenceable(4) @.str.15, ptr noundef nonnull align 4 dereferenceable(4) %8, ptr noundef nonnull align 1 dereferenceable(18) @.str.18, ptr noundef nonnull align 4 dereferenceable(4) %9)
  invoke void @_ZN10open_spiel15SpielFatalErrorERKNSt7__cxx1112basic_stringIcSt11char_traitsIcESaIcEEE(ptr noundef nonnull align 8 dereferenceable(32) %10) #23
          to label %22 unwind label %23

22:                                               ; preds = %21
  unreachable

23:                                               ; preds = %21
  %24 = landingpad { ptr, i32 }
          cleanup
  br label %26

25:                                               ; preds = %17
  tail call void @_ZNK10open_spiel5State13HistoryStringB5cxx11Ev(ptr dead_on_unwind writable sret(%"class.std::__cxx11::basic_string") align 8 %0, ptr noundef nonnull align 8 dereferenceable(60) %1)
  ret void

26:                                               ; preds = %23, %15
  %.sink = phi ptr [ %10, %23 ], [ %6, %15 ]
  %.pn = phi { ptr, i32 } [ %24, %23 ], [ %16, %15 ]
  call void @_ZNSt7__cxx1112basic_stringIcSt11char_traitsIcESaIcEED1Ev(ptr noundef nonnull align 8 dereferenceable(32) %.sink) #24
  resume { ptr, i32 } %.pn
}